; Function Attrs: mustprogress uwtable
define hidden void @_ZN4cvc58internal7Integer6setBitEjb(ptr noundef nonnull align 8 dereferenceable(16) %0, i32 noundef %1, i1 noundef zeroext %2) local_unnamed_addr #0 align 2 {
  %4 = zext i32 %1 to i64
  br i1 %2, label %5, label %6

5:                                                ; preds = %3
  tail call void @__gmpz_setbit(ptr noundef nonnull %0, i64 noundef %4)
  br label %7

6:                                                ; preds = %3
  tail call void @__gmpz_clrbit(ptr noundef nonnull %0, i64 noundef %4)
  br label %7

7:                                                ; preds = %6, %5
  ret void
}